target datalayout = "e-m:e-p270:32:32-p271:32:32-p272:64:64-i64:64-i128:128-f80:128-n8:16:32:64-S128"
target triple = "x86_64-pc-linux-gnu"

%struct._object = type { %union.anon, ptr }
%union.anon = type { i64 }
%struct.PyVarObject = type { %struct._object, i64 }
%struct.meth_state = type { i32 }

@_Py_NoneStruct = external global %struct._object, align 8

; Function Attrs: inlinehint nounwind uwtable
define internal i64 @Py_SIZE(ptr noundef %0) #4 {
  %2 = alloca ptr, align 8
  store ptr %0, ptr %2, align 8, !tbaa !3
  %3 = load ptr, ptr %2, align 8, !tbaa !3
  %4 = getelementptr inbounds nuw %struct.PyVarObject, ptr %3, i32 0, i32 1
  %5 = load i64, ptr %4, align 8, !tbaa !37
  ret i64 %5
}

; Function Attrs: nounwind uwtable
define internal ptr @_testmultiphase_StateAccessType_increment_count_clinic_impl(ptr noundef %0, ptr noundef %1, i32 noundef %2, i32 noundef %3) #0 {
  %5 = alloca ptr, align 8
  %6 = alloca ptr, align 8
  %7 = alloca i32, align 4
  %8 = alloca i32, align 4
  %9 = alloca ptr, align 8
  store ptr %0, ptr %5, align 8, !tbaa !17
  store ptr %1, ptr %6, align 8, !tbaa !26
  store i32 %2, ptr %7, align 4, !tbaa !13
  store i32 %3, ptr %8, align 4, !tbaa !13
  call void @llvm.lifetime.start.p0(i64 8, ptr %9) #5
  %10 = load ptr, ptr %6, align 8, !tbaa !26
  %11 = call ptr @PyType_GetModuleState(ptr noundef %10)
  store ptr %11, ptr %9, align 8, !tbaa !17
  %12 = load i32, ptr %8, align 4, !tbaa !13
  %13 = icmp ne i32 %12, 0
  br i1 %13, label %14, label %17

14:                                               ; preds = %4
  %15 = load i32, ptr %7, align 4, !tbaa !13
  %16 = mul i32 %15, 2
  store i32 %16, ptr %7, align 4, !tbaa !13
  br label %17

17:                                               ; preds = %14, %4
  %18 = load i32, ptr %7, align 4, !tbaa !13
  %19 = load ptr, ptr %9, align 8, !tbaa !17
  %20 = getelementptr inbounds nuw %struct.meth_state, ptr %19, i32 0, i32 0
  %21 = load i32, ptr %20, align 4, !tbaa !35
  %22 = add i32 %21, %18
  store i32 %22, ptr %20, align 4, !tbaa !35
  call void @llvm.lifetime.end.p0(i64 8, ptr %9) #5
  ret ptr @_Py_NoneStruct
}

; Function Attrs: inlinehint nounwind uwtable
define internal i64 @PyTuple_GET_SIZE(ptr noundef %0) #4 {
  %2 = alloca ptr, align 8
  %3 = alloca ptr, align 8
  store ptr %0, ptr %2, align 8, !tbaa !3
  call void @llvm.lifetime.start.p0(i64 8, ptr %3) #5
  %4 = load ptr, ptr %2, align 8, !tbaa !3
  store ptr %4, ptr %3, align 8, !tbaa !17
  %5 = load ptr, ptr %3, align 8, !tbaa !17
  %6 = call i64 @Py_SIZE(ptr noundef %5)
  call void @llvm.lifetime.end.p0(i64 8, ptr %3) #5
  ret i64 %6
}

; Function Attrs: nounwind uwtable
define internal ptr @_testmultiphase_StateAccessType_increment_count_clinic(ptr noundef %0, ptr noundef %1, ptr noundef %2, i64 noundef %3, ptr noundef %4) #0 {
  %6 = alloca ptr, align 8
  %7 = alloca ptr, align 8
  %8 = alloca ptr, align 8
  %9 = alloca i64, align 8
  %10 = alloca ptr, align 8
  %11 = alloca ptr, align 8
  %12 = alloca [2 x ptr], align 16
  %13 = alloca i64, align 8
  %14 = alloca i32, align 4
  %15 = alloca i32, align 4
  store ptr %0, ptr %6, align 8, !tbaa !3
  store ptr %1, ptr %7, align 8, !tbaa !26
  store ptr %2, ptr %8, align 8, !tbaa !18
  store i64 %3, ptr %9, align 8, !tbaa !9
  store ptr %4, ptr %10, align 8, !tbaa !3
  call void @llvm.lifetime.start.p0(i64 8, ptr %11) #5
  store ptr null, ptr %11, align 8, !tbaa !3
  call void @llvm.lifetime.start.p0(i64 16, ptr %12) #5
  call void @llvm.lifetime.start.p0(i64 8, ptr %13) #5
  %16 = load i64, ptr %9, align 8, !tbaa !9
  %17 = load ptr, ptr %10, align 8, !tbaa !3
  %18 = icmp ne ptr %17, null
  br i1 %18, label %19, label %22

19:                                               ; preds = %5
  %20 = load ptr, ptr %10, align 8, !tbaa !3
  %21 = call i64 @PyTuple_GET_SIZE(ptr noundef %20)
  br label %23

22:                                               ; preds = %5
  br label %23

23:                                               ; preds = %22, %19
  %24 = phi i64 [ %21, %19 ], [ 0, %22 ]
  %25 = add i64 %16, %24
  %26 = sub i64 %25, 0
  store i64 %26, ptr %13, align 8, !tbaa !9
  call void @llvm.lifetime.start.p0(i64 4, ptr %14) #5
  store i32 1, ptr %14, align 4, !tbaa !13
  call void @llvm.lifetime.start.p0(i64 4, ptr %15) #5
  store i32 0, ptr %15, align 4, !tbaa !13
  %27 = load ptr, ptr %10, align 8, !tbaa !3
  %28 = icmp eq ptr %27, null
  br i1 %28, label %29, label %40

29:                                               ; preds = %23
  %30 = load i64, ptr %9, align 8, !tbaa !9
  %31 = icmp sle i64 0, %30
  br i1 %31, label %32, label %40

32:                                               ; preds = %29
  %33 = load i64, ptr %9, align 8, !tbaa !9
  %34 = icmp sle i64 %33, 1
  br i1 %34, label %35, label %40

35:                                               ; preds = %32
  %36 = load ptr, ptr %8, align 8, !tbaa !18
  %37 = icmp ne ptr %36, null
  br i1 %37, label %38, label %40

38:                                               ; preds = %35
  %39 = load ptr, ptr %8, align 8, !tbaa !18
  br label %46

40:                                               ; preds = %35, %32, %29, %23
  %41 = load ptr, ptr %8, align 8, !tbaa !18
  %42 = load i64, ptr %9, align 8, !tbaa !9
  %43 = load ptr, ptr %10, align 8, !tbaa !3
  %44 = getelementptr inbounds [2 x ptr], ptr %12, i64 0, i64 0
  %45 = call ptr @_PyArg_UnpackKeywords(ptr noundef %41, i64 noundef %42, ptr noundef null, ptr noundef %43, ptr noundef @_testmultiphase_StateAccessType_increment_count_clinic._parser, i32 noundef 0, i32 noundef 1, i32 noundef 0, i32 noundef 0, ptr noundef %44)
  br label %46

46:                                               ; preds = %40, %38
  %47 = phi ptr [ %39, %38 ], [ %45, %40 ]
  store ptr %47, ptr %8, align 8, !tbaa !18
  %48 = load ptr, ptr %8, align 8, !tbaa !18
  %49 = icmp ne ptr %48, null
  br i1 %49, label %51, label %50

50:                                               ; preds = %46
  br label %97

51:                                               ; preds = %46
  %52 = load i64, ptr %13, align 8, !tbaa !9
  %53 = icmp ne i64 %52, 0
  br i1 %53, label %55, label %54

54:                                               ; preds = %51
  br label %78

55:                                               ; preds = %51
  %56 = load ptr, ptr %8, align 8, !tbaa !18
  %57 = getelementptr ptr, ptr %56, i64 0
  %58 = load ptr, ptr %57, align 8, !tbaa !3
  %59 = icmp ne ptr %58, null
  br i1 %59, label %60, label %77

60:                                               ; preds = %55
  %61 = load ptr, ptr %8, align 8, !tbaa !18
  %62 = getelementptr ptr, ptr %61, i64 0
  %63 = load ptr, ptr %62, align 8, !tbaa !3
  %64 = call i32 @PyLong_AsInt(ptr noundef %63)
  store i32 %64, ptr %14, align 4, !tbaa !13
  %65 = load i32, ptr %14, align 4, !tbaa !13
  %66 = icmp eq i32 %65, -1
  br i1 %66, label %67, label %71

67:                                               ; preds = %60
  %68 = call ptr @PyErr_Occurred()
  %69 = icmp ne ptr %68, null
  br i1 %69, label %70, label %71

70:                                               ; preds = %67
  br label %97

71:                                               ; preds = %67, %60
  %72 = load i64, ptr %13, align 8, !tbaa !9
  %73 = add i64 %72, -1
  store i64 %73, ptr %13, align 8, !tbaa !9
  %74 = icmp ne i64 %73, 0
  br i1 %74, label %76, label %75

75:                                               ; preds = %71
  br label %78

76:                                               ; preds = %71
  br label %77

77:                                               ; preds = %76, %55
  br label %78

78:                                               ; preds = %77, %75, %54
  %79 = load i64, ptr %13, align 8, !tbaa !9
  %80 = icmp ne i64 %79, 0
  br i1 %80, label %82, label %81

81:                                               ; preds = %78
  br label %91

82:                                               ; preds = %78
  %83 = load ptr, ptr %8, align 8, !tbaa !18
  %84 = getelementptr ptr, ptr %83, i64 1
  %85 = load ptr, ptr %84, align 8, !tbaa !3
  %86 = call i32 @PyObject_IsTrue(ptr noundef %85)
  store i32 %86, ptr %15, align 4, !tbaa !13
  %87 = load i32, ptr %15, align 4, !tbaa !13
  %88 = icmp slt i32 %87, 0
  br i1 %88, label %89, label %90

89:                                               ; preds = %82
  br label %97

90:                                               ; preds = %82
  br label %91

91:                                               ; preds = %90, %81
  %92 = load ptr, ptr %6, align 8, !tbaa !3
  %93 = load ptr, ptr %7, align 8, !tbaa !26
  %94 = load i32, ptr %14, align 4, !tbaa !13
  %95 = load i32, ptr %15, align 4, !tbaa !13
  %96 = call ptr @_testmultiphase_StateAccessType_increment_count_clinic_impl(ptr noundef %92, ptr noundef %93, i32 noundef %94, i32 noundef %95)
  store ptr %96, ptr %11, align 8, !tbaa !3
  br label %97

97:                                               ; preds = %91, %89, %70, %50
  %98 = load ptr, ptr %11, align 8, !tbaa !3
  call void @llvm.lifetime.end.p0(i64 4, ptr %15) #5
  call void @llvm.lifetime.end.p0(i64 4, ptr %14) #5
  call void @llvm.lifetime.end.p0(i64 8, ptr %13) #5
  call void @llvm.lifetime.end.p0(i64 16, ptr %12) #5
  call void @llvm.lifetime.end.p0(i64 8, ptr %11) #5
  ret ptr %98
}