; Function Attrs: nounwind uwtable
define internal noundef ptr @_testmultiphase_StateAccessType_increment_count_clinic(ptr readnone captures(none) %0, ptr noundef %1, ptr noundef %2, i64 noundef %3, ptr noundef %4) #0 {
  %6 = alloca [2 x ptr], align 16
  call void @llvm.lifetime.start.p0(i64 16, ptr nonnull %6) #4
  %.not = icmp eq ptr %4, null
  br i1 %.not, label %9, label %.thread

.thread:                                          ; preds = %5
  %7 = getelementptr i8, ptr %4, i64 16
  %.val = load i64, ptr %7, align 8, !tbaa !28
  %8 = add i64 %.val, %3
  br label %12

9:                                                ; preds = %5
  %10 = icmp ult i64 %3, 2
  %11 = icmp ne ptr %2, null
  %or.cond5 = and i1 %11, %10
  br i1 %or.cond5, label %.thread45, label %12

12:                                               ; preds = %9, %.thread
  %13 = phi i64 [ %8, %.thread ], [ %3, %9 ]
  %14 = call ptr @_PyArg_UnpackKeywords(ptr noundef %2, i64 noundef %3, ptr noundef null, ptr noundef %4, ptr noundef nonnull @_testmultiphase_StateAccessType_increment_count_clinic._parser, i32 noundef 0, i32 noundef 1, i32 noundef 0, i32 noundef 0, ptr noundef nonnull %6) #4
  %.not38 = icmp eq ptr %14, null
  br i1 %.not38, label %34, label %.thread45

.thread45:                                        ; preds = %9, %12
  %15 = phi ptr [ %14, %12 ], [ %2, %9 ]
  %16 = phi i64 [ %13, %12 ], [ %3, %9 ]
  %.not39 = icmp eq i64 %16, 0
  br i1 %.not39, label %.thread47, label %17

17:                                               ; preds = %.thread45
  %18 = load ptr, ptr %15, align 8, !tbaa !3
  %.not40 = icmp eq ptr %18, null
  br i1 %.not40, label %.thread51, label %19

19:                                               ; preds = %17
  %20 = call i32 @PyLong_AsInt(ptr noundef nonnull %18) #4
  %21 = icmp eq i32 %20, -1
  br i1 %21, label %22, label %24

22:                                               ; preds = %19
  %23 = call ptr @PyErr_Occurred() #4
  %.not41 = icmp eq ptr %23, null
  br i1 %.not41, label %24, label %34

24:                                               ; preds = %19, %22
  %25 = icmp eq i64 %16, 1
  br i1 %25, label %.thread47, label %.thread51

.thread51:                                        ; preds = %17, %24
  %.02954 = phi i32 [ %20, %24 ], [ 1, %17 ]
  %26 = getelementptr i8, ptr %15, i64 8
  %27 = load ptr, ptr %26, align 8, !tbaa !3
  %28 = call i32 @PyObject_IsTrue(ptr noundef %27) #4
  %29 = icmp slt i32 %28, 0
  br i1 %29, label %34, label %.thread47

.thread47:                                        ; preds = %.thread45, %.thread51, %24
  %.02950 = phi i32 [ %.02954, %.thread51 ], [ %20, %24 ], [ 1, %.thread45 ]
  %.0 = phi i32 [ %28, %.thread51 ], [ 0, %24 ], [ 0, %.thread45 ]
  %30 = call ptr @PyType_GetModuleState(ptr noundef %1) #4
  %.not.i = icmp ne i32 %.0, 0
  %31 = zext i1 %.not.i to i32
  %spec.select.i = shl i32 %.02950, %31
  %32 = load i32, ptr %30, align 4, !tbaa !29
  %33 = add i32 %spec.select.i, %32
  store i32 %33, ptr %30, align 4, !tbaa !29
  br label %34

34:                                               ; preds = %.thread51, %22, %12, %.thread47
  %.031 = phi ptr [ null, %22 ], [ null, %.thread51 ], [ @_Py_NoneStruct, %.thread47 ], [ null, %12 ]
  call void @llvm.lifetime.end.p0(i64 16, ptr nonnull %6) #4
  ret ptr %.031
}